; ModuleID = '16/346.cpp'
source_filename = "16/346.cpp"
target datalayout = "e-m:e-p270:32:32-p271:32:32-p272:64:64-i64:64-f80:128-n8:16:32:64-S128"
target triple = "x86_64-pc-linux-gnu"

%"class.std::ios_base::Init" = type { i8 }
%"class.std::basic_istream" = type { i32 (...)**, i64, %"class.std::basic_ios" }
%"class.std::basic_ios" = type { %"class.std::ios_base", %"class.std::basic_ostream"*, i8, i8, %"class.std::basic_streambuf"*, %"class.std::ctype"*, %"class.std::num_put"*, %"class.std::num_get"* }
%"class.std::ios_base" = type { i32 (...)**, i64, i64, i32, i32, i32, %"struct.std::ios_base::_Callback_list"*, %"struct.std::ios_base::_Words", [8 x %"struct.std::ios_base::_Words"], i32, %"struct.std::ios_base::_Words"*, %"class.std::locale" }
%"struct.std::ios_base::_Callback_list" = type { %"struct.std::ios_base::_Callback_list"*, void (i32, %"class.std::ios_base"*, i32)*, i32, i32 }
%"struct.std::ios_base::_Words" = type { i8*, i64 }
%"class.std::locale" = type { %"class.std::locale::_Impl"* }
%"class.std::locale::_Impl" = type { i32, %"class.std::locale::facet"**, i64, %"class.std::locale::facet"**, i8** }
%"class.std::locale::facet" = type <{ i32 (...)**, i32, [4 x i8] }>
%"class.std::basic_ostream" = type { i32 (...)**, %"class.std::basic_ios" }
%"class.std::basic_streambuf" = type { i32 (...)**, i8*, i8*, i8*, i8*, i8*, i8*, %"class.std::locale" }
%"class.std::ctype" = type <{ %"class.std::locale::facet.base", [4 x i8], %struct.__locale_struct*, i8, [7 x i8], i32*, i32*, i16*, i8, [256 x i8], [256 x i8], i8, [6 x i8] }>
%"class.std::locale::facet.base" = type <{ i32 (...)**, i32 }>
%struct.__locale_struct = type { [13 x %struct.__locale_data*], i16*, i32*, i32*, [13 x i8*] }
%struct.__locale_data = type opaque
%"class.std::num_put" = type { %"class.std::locale::facet.base", [4 x i8] }
%"class.std::num_get" = type { %"class.std::locale::facet.base", [4 x i8] }

@_ZStL8__ioinit = internal global %"class.std::ios_base::Init" zeroinitializer, align 1
@__dso_handle = external hidden global i8
@_ZSt3cin = external dso_local global %"class.std::basic_istream", align 8
@_ZSt4cout = external dso_local global %"class.std::basic_ostream", align 8
@.str = private unnamed_addr constant [6 x i8] c"00001\00", align 1
@llvm.global_ctors = appending global [1 x { i32, void ()*, i8* }] [{ i32, void ()*, i8* } { i32 65535, void ()* @_GLOBAL__sub_I_346.cpp, i8* null }]

; Function Attrs: noinline uwtable
define internal void @__cxx_global_var_init() #0 section ".text.startup" {
  call void @_ZNSt8ios_base4InitC1Ev(%"class.std::ios_base::Init"* @_ZStL8__ioinit)
  %1 = call i32 @__cxa_atexit(void (i8*)* bitcast (void (%"class.std::ios_base::Init"*)* @_ZNSt8ios_base4InitD1Ev to void (i8*)*), i8* getelementptr inbounds (%"class.std::ios_base::Init", %"class.std::ios_base::Init"* @_ZStL8__ioinit, i32 0, i32 0), i8* @__dso_handle) #3
  ret void
}

declare dso_local void @_ZNSt8ios_base4InitC1Ev(%"class.std::ios_base::Init"*) unnamed_addr #1

; Function Attrs: nounwind
declare dso_local void @_ZNSt8ios_base4InitD1Ev(%"class.std::ios_base::Init"*) unnamed_addr #2

; Function Attrs: nounwind
declare dso_local i32 @__cxa_atexit(void (i8*)*, i8*, i8*) #3

; Function Attrs: noinline norecurse uwtable
define dso_local i32 @main() #4 {
  %1 = alloca i32, align 4
  %2 = alloca i32, align 4
  %3 = alloca i32, align 4
  %4 = alloca i32, align 4
  %5 = alloca i32, align 4
  %6 = alloca i32, align 4
  store i32 0, i32* %1, align 4
  %7 = call dereferenceable(280) %"class.std::basic_istream"* @_ZNSirsERi(%"class.std::basic_istream"* @_ZSt3cin, i32* dereferenceable(4) %2)
  %8 = load i32, i32* %2, align 4
  %9 = icmp sle i32 %8, 9
  br i1 %9, label %10, label %16

10:                                               ; preds = %0
  %11 = load i32, i32* %2, align 4
  %12 = icmp sle i32 0, %11
  br i1 %12, label %13, label %16

13:                                               ; preds = %10
  %14 = load i32, i32* %2, align 4
  %15 = call dereferenceable(272) %"class.std::basic_ostream"* @_ZNSolsEi(%"class.std::basic_ostream"* @_ZSt4cout, i32 %14)
  br label %16

16:                                               ; preds = %13, %10, %0
  %17 = load i32, i32* %2, align 4
  %18 = icmp sle i32 %17, 99
  br i1 %18, label %19, label %33

19:                                               ; preds = %16
  %20 = load i32, i32* %2, align 4
  %21 = icmp sle i32 10, %20
  br i1 %21, label %22, label %33

22:                                               ; preds = %19
  %23 = load i32, i32* %2, align 4
  %24 = srem i32 %23, 10
  store i32 %24, i32* %3, align 4
  %25 = load i32, i32* %2, align 4
  %26 = sdiv i32 %25, 10
  store i32 %26, i32* %2, align 4
  %27 = load i32, i32* %3, align 4
  %28 = call dereferenceable(272) %"class.std::basic_ostream"* @_ZNSolsEi(%"class.std::basic_ostream"* @_ZSt4cout, i32 %27)
  %29 = load i32, i32* %2, align 4
  %30 = srem i32 %29, 10
  store i32 %30, i32* %4, align 4
  %31 = load i32, i32* %4, align 4
  %32 = call dereferenceable(272) %"class.std::basic_ostream"* @_ZNSolsEi(%"class.std::basic_ostream"* @_ZSt4cout, i32 %31)
  br label %33

33:                                               ; preds = %22, %19, %16
  %34 = load i32, i32* %2, align 4
  %35 = icmp sle i32 %34, 999
  br i1 %35, label %36, label %56

36:                                               ; preds = %33
  %37 = load i32, i32* %2, align 4
  %38 = icmp sle i32 100, %37
  br i1 %38, label %39, label %56

39:                                               ; preds = %36
  %40 = load i32, i32* %2, align 4
  %41 = srem i32 %40, 10
  store i32 %41, i32* %3, align 4
  %42 = load i32, i32* %2, align 4
  %43 = sdiv i32 %42, 10
  store i32 %43, i32* %2, align 4
  %44 = load i32, i32* %3, align 4
  %45 = call dereferenceable(272) %"class.std::basic_ostream"* @_ZNSolsEi(%"class.std::basic_ostream"* @_ZSt4cout, i32 %44)
  %46 = load i32, i32* %2, align 4
  %47 = srem i32 %46, 10
  store i32 %47, i32* %4, align 4
  %48 = load i32, i32* %2, align 4
  %49 = sdiv i32 %48, 10
  store i32 %49, i32* %2, align 4
  %50 = load i32, i32* %4, align 4
  %51 = call dereferenceable(272) %"class.std::basic_ostream"* @_ZNSolsEi(%"class.std::basic_ostream"* @_ZSt4cout, i32 %50)
  %52 = load i32, i32* %2, align 4
  %53 = srem i32 %52, 10
  store i32 %53, i32* %5, align 4
  %54 = load i32, i32* %5, align 4
  %55 = call dereferenceable(272) %"class.std::basic_ostream"* @_ZNSolsEi(%"class.std::basic_ostream"* @_ZSt4cout, i32 %54)
  br label %56

56:                                               ; preds = %39, %36, %33
  %57 = load i32, i32* %2, align 4
  %58 = icmp sle i32 %57, 9999
  br i1 %58, label %59, label %85

59:                                               ; preds = %56
  %60 = load i32, i32* %2, align 4
  %61 = icmp sle i32 1000, %60
  br i1 %61, label %62, label %85

62:                                               ; preds = %59
  %63 = load i32, i32* %2, align 4
  %64 = srem i32 %63, 10
  store i32 %64, i32* %3, align 4
  %65 = load i32, i32* %2, align 4
  %66 = sdiv i32 %65, 10
  store i32 %66, i32* %2, align 4
  %67 = load i32, i32* %3, align 4
  %68 = call dereferenceable(272) %"class.std::basic_ostream"* @_ZNSolsEi(%"class.std::basic_ostream"* @_ZSt4cout, i32 %67)
  %69 = load i32, i32* %2, align 4
  %70 = srem i32 %69, 10
  store i32 %70, i32* %4, align 4
  %71 = load i32, i32* %2, align 4
  %72 = sdiv i32 %71, 10
  store i32 %72, i32* %2, align 4
  %73 = load i32, i32* %4, align 4
  %74 = call dereferenceable(272) %"class.std::basic_ostream"* @_ZNSolsEi(%"class.std::basic_ostream"* @_ZSt4cout, i32 %73)
  %75 = load i32, i32* %2, align 4
  %76 = srem i32 %75, 10
  store i32 %76, i32* %5, align 4
  %77 = load i32, i32* %2, align 4
  %78 = sdiv i32 %77, 10
  store i32 %78, i32* %2, align 4
  %79 = load i32, i32* %5, align 4
  %80 = call dereferenceable(272) %"class.std::basic_ostream"* @_ZNSolsEi(%"class.std::basic_ostream"* @_ZSt4cout, i32 %79)
  %81 = load i32, i32* %2, align 4
  %82 = srem i32 %81, 10
  store i32 %82, i32* %6, align 4
  %83 = load i32, i32* %6, align 4
  %84 = call dereferenceable(272) %"class.std::basic_ostream"* @_ZNSolsEi(%"class.std::basic_ostream"* @_ZSt4cout, i32 %83)
  br label %85

85:                                               ; preds = %62, %59, %56
  %86 = load i32, i32* %2, align 4
  %87 = icmp eq i32 %86, 10000
  br i1 %87, label %88, label %90

88:                                               ; preds = %85
  %89 = call dereferenceable(272) %"class.std::basic_ostream"* @_ZStlsISt11char_traitsIcEERSt13basic_ostreamIcT_ES5_PKc(%"class.std::basic_ostream"* dereferenceable(272) @_ZSt4cout, i8* getelementptr inbounds ([6 x i8], [6 x i8]* @.str, i64 0, i64 0))
  br label %90

90:                                               ; preds = %88, %85
  ret i32 0
}

declare dso_local dereferenceable(280) %"class.std::basic_istream"* @_ZNSirsERi(%"class.std::basic_istream"*, i32* dereferenceable(4)) #1

declare dso_local dereferenceable(272) %"class.std::basic_ostream"* @_ZNSolsEi(%"class.std::basic_ostream"*, i32) #1

declare dso_local dereferenceable(272) %"class.std::basic_ostream"* @_ZStlsISt11char_traitsIcEERSt13basic_ostreamIcT_ES5_PKc(%"class.std::basic_ostream"* dereferenceable(272), i8*) #1

; Function Attrs: noinline uwtable
define internal void @_GLOBAL__sub_I_346.cpp() #0 section ".text.startup" {
  call void @__cxx_global_var_init()
  ret void
}


!llvm.module.flags = !{!0}
!llvm.ident = !{!1}

!0 = !{i32 1, !"wchar_size", i32 4}
!1 = !{!"clang version 10.0.0-4ubuntu1 "}
